Certificate:
    Data:
        Version: 3 (0x2)
        Serial Number:
            de:af:9c:77:07:5d:8d:99:96:99:0b:7d:8c:fc:ce:10
        Signature Algorithm: sha256WithRSAEncryption
        Issuer: CN=shola
        Validity
            Not Before: Mar 22 17:41:22 2023 GMT
            Not After : Jun 24 17:41:22 2025 GMT
        Subject: CN=client1.domain.tld
        Subject Public Key Info:
            Public Key Algorithm: rsaEncryption
                RSA Public-Key: (2048 bit)
                Modulus:
                    00:da:2d:8e:cb:db:80:2e:a2:8a:0a:dc:09:c1:d4:
                    92:44:60:46:fa:b4:4f:00:7e:b0:75:95:bb:b5:f5:
                    3c:15:79:75:a2:58:bd:72:f7:50:17:57:df:11:4b:
                    48:96:b4:78:09:3e:18:48:a9:65:38:cb:24:13:17:
                    50:7a:ae:eb:b3:a9:6f:f6:e3:b9:6e:b8:30:6b:ef:
                    c0:8c:15:69:32:00:ea:7f:b7:63:0a:52:01:4e:c8:
                    04:0d:52:fd:ac:2b:eb:14:82:c6:0a:d2:1f:2e:d9:
                    f7:a2:a9:d5:75:76:d1:28:33:bd:a1:4d:88:fd:28:
                    fa:ef:98:80:d6:e5:a8:1f:8a:9c:92:ba:f6:bb:65:
                    55:1b:d3:db:d6:c8:a2:6e:67:b7:46:54:77:4b:4d:
                    8f:78:7e:a1:66:7b:29:74:b0:1f:f0:b9:3e:10:62:
                    d4:20:8c:a0:a5:da:33:77:75:4b:af:87:9e:74:40:
                    64:f1:c8:d1:47:6a:3b:f9:73:08:53:73:3a:c6:80:
                    2d:6b:66:db:08:8a:fa:ba:a9:9b:21:86:68:cc:60:
                    82:3d:d0:73:e4:37:14:63:76:89:ff:14:b2:46:cf:
                    e3:0a:7e:00:04:c4:96:9d:91:6b:dc:bb:4b:55:70:
                    bd:3e:20:b7:0e:4a:94:96:bc:ea:ae:21:67:5b:b2:
                    81:21
                Exponent: 65537 (0x10001)
        X509v3 extensions:
            X509v3 Basic Constraints: 
                CA:FALSE
            X509v3 Subject Key Identifier: 
                1A:72:BB:FF:45:06:42:58:61:B7:D5:56:14:21:F9:55:99:12:97:B5
            X509v3 Authority Key Identifier: 
                keyid:28:7B:56:7B:9C:39:AB:F2:62:9E:46:6D:00:B2:7E:43:04:D6:6E:38
                DirName:/CN=shola
                serial:67:43:07:9D:CF:5F:6C:51:71:45:8A:61:9A:E3:1D:FE:7B:DC:B2:E5

            X509v3 Extended Key Usage: 
                TLS Web Client Authentication
            X509v3 Key Usage: 
                Digital Signature
    Signature Algorithm: sha256WithRSAEncryption
         02:79:b1:3e:03:94:96:d8:da:cd:57:2b:2a:8f:85:25:b5:8a:
         fd:82:26:45:ba:be:07:b3:46:ee:2d:39:bd:28:67:a4:a1:4e:
         41:25:16:8c:d7:70:d9:e7:11:50:ac:12:08:7a:25:28:33:f4:
         a3:39:0e:1d:cd:e4:20:2d:2e:b3:f0:ac:0d:be:a8:e2:87:dd:
         5e:e2:b7:7f:a5:69:3b:02:35:f6:96:8a:ad:61:81:ab:fe:6b:
         45:71:e0:61:c3:ac:92:29:24:a4:69:2b:ee:8c:bb:22:16:87:
         b7:9c:ab:c9:03:01:e1:10:5e:86:25:14:7f:26:1e:de:bd:59:
         89:98:8c:c1:d0:0a:67:17:55:5a:28:7c:2d:53:5a:3c:c2:d4:
         f1:d0:d0:5e:b6:3d:14:ea:82:76:f9:64:d7:88:d4:d8:13:18:
         42:82:83:d7:ee:20:cb:24:0b:d3:5a:a9:7c:45:3d:96:b0:82:
         f5:a1:7d:4d:51:5a:22:51:e6:80:1f:11:f6:4a:6f:82:a6:0c:
         3a:d3:0f:ef:da:64:34:28:01:f8:19:e7:f0:7c:2d:8b:9e:f3:
         11:a6:bc:c4:d6:81:8a:6e:c0:3e:1c:9c:c6:a8:31:66:8c:91:
         61:9a:69:d9:e5:6b:09:38:81:3d:13:2f:50:3a:88:41:e2:e7:
         43:13:b6:dd
-----BEGIN CERTIFICATE-----
MIIDVTCCAj2gAwIBAgIRAN6vnHcHXY2ZlpkLfakeYz8zhAwDQYJKoZIhvcNAQELBQAw
EDEOMAwGA1UEAwwFc2hvbGEwHhcNMjMwMzIyMTc0MTIyWhcNMjUwNjI0MTc0MTIy
WjAdMRswGQYDVQQDDBJjbGllbnQxLmRvbWFpbi50bGQwggEiMA0GCSqGSIb3DQEB
AQUAA4IBDwAwggEKAoIBAQDaLY7L24AuoooK3AnB1JJEYEb6tE8AfrB1lbu19TwV
eXWiWL1y91AXV98RS0iWtHgJPhhIqWU4yyQTF1B6ruuzqW/247luuDBr78CMFWky
AOp/t2MKUgFOyAQNUv2sK+sUgsYK0h8u2feiqdV1dtEoM72hTYj9KPrvmIDW5agf
ipySuva7ZVUb09vWyKJuZ7dGVHdLTY94fqFmeyl0sB/wuT4QYtQgjKCl2jN3dUuv
h550QGTxyNFHajv5cwhTczrGgC1rZtsIivq6qZshhmjMYII90HPkNxRjdon/FLJG
z+MKfgAExJadkWvcu0tVcL0+ILcOSpSWvOquIWdbsoEhAgMBAAGjgZwwgZkwCQYD
VR0TBAIwADAdBgNVHQ4EFgQUGnK7/0UGQlhht9VWFCH5VZkSl7UwSwYDVR0jBEQw
QoAUKHtWe5w5q/JinkZtALJ+QwTWbjihFKQSMBAxDjAMBgNVBAMMBXNob2xhghRn
Qwedz19sUXFFimGa4x3+e9yy5TATBgNVHSUEDDAKBggrBgEFBQcDAjALBgNVHQ8E
BAMCB4AwDQYJKoZIhvcNAQELBQADggEBAAJ5sT4DlJbY2s1XKyqPhSW1iv2CJkW6
vgezRu4tOb0oZ6ShTkElFozXcNnnEVCsEgh6JSgz9KM5Dh3N5CAtLrPwrA2+qOKH
3V7it3+laTsCNfaWiq1hgav+a0Vx4GHDrJIpJKRpK+6MuyIWh7ecq8kDAeEQXoYl
FH8mHt69WYmYjMHQCmcXVVoofC1TWjzC1PHQ0F62PRTqgnb5ZNeI1NgTGEKCg9fu
IMskC9NaqXxFPZawgvWhfU1RWiJR5oAfEfZKb4KmDDrTD+/aZDQoAfgZ5/B8LYue
8xGmvMTWgYpuwD4cnMaoMWaMkWGaadnlawk4gT0TL1A6iEHi50MTtt0=
-----END CERTIFICATE-----
